target datalayout = "e-m:e-p270:32:32-p271:32:32-p272:64:64-i64:64-i128:128-f80:128-n8:16:32:64-S128"
target triple = "x86_64-pc-linux-gnu"

%"class.std::_Function_base" = type { %"union.std::_Any_data", ptr }
%"union.std::_Any_data" = type { %"union.std::_Nocopy_types" }
%"union.std::_Nocopy_types" = type { { i64, i64 } }
%"class.(anonymous namespace)::StringSorter" = type <{ [2 x %"class.std::function"], %"class.std::function.5", i8, [7 x i8] }>
%"class.std::function" = type { %"class.std::_Function_base", ptr }
%"class.std::function.5" = type { %"class.std::_Function_base", ptr }

; Function Attrs: mustprogress nounwind uwtable
define linkonce_odr dso_local noundef zeroext i1 @_ZNKSt14_Function_base8_M_emptyEv(ptr noundef nonnull align 8 dereferenceable(24) %0) #5 comdat align 2 {
  %2 = alloca ptr, align 8
  store ptr %0, ptr %2, align 8
  %3 = load ptr, ptr %2, align 8
  %4 = getelementptr inbounds %"class.std::_Function_base", ptr %3, i32 0, i32 1
  %5 = load ptr, ptr %4, align 8
  %6 = icmp ne ptr %5, null
  %7 = xor i1 %6, true
  ret i1 %7
}

; Function Attrs: mustprogress nounwind uwtable
define linkonce_odr dso_local noundef zeroext i1 @_ZNKSt8functionIFbRKNSt7__cxx1112basic_stringIcSt11char_traitsIcESaIcEEES7_EEcvbEv(ptr noundef nonnull align 8 dereferenceable(32) %0) #5 comdat align 2 {
  %2 = alloca ptr, align 8
  store ptr %0, ptr %2, align 8
  %3 = load ptr, ptr %2, align 8
  %4 = call noundef zeroext i1 @_ZNKSt14_Function_base8_M_emptyEv(ptr noundef nonnull align 8 dereferenceable(24) %3)
  %5 = xor i1 %4, true
  ret i1 %5
}

; Function Attrs: mustprogress nounwind uwtable
define linkonce_odr dso_local void @_ZNSt14_Function_baseD2Ev(ptr noundef nonnull align 8 dereferenceable(24) %0) unnamed_addr #5 comdat align 2 personality ptr @__gxx_personality_v0 {
  %2 = alloca ptr, align 8
  store ptr %0, ptr %2, align 8
  %3 = load ptr, ptr %2, align 8
  %4 = getelementptr inbounds %"class.std::_Function_base", ptr %3, i32 0, i32 1
  %5 = load ptr, ptr %4, align 8
  %6 = icmp ne ptr %5, null
  br i1 %6, label %7, label %14

7:                                                ; preds = %1
  %8 = getelementptr inbounds %"class.std::_Function_base", ptr %3, i32 0, i32 1
  %9 = load ptr, ptr %8, align 8
  %10 = getelementptr inbounds %"class.std::_Function_base", ptr %3, i32 0, i32 0
  %11 = getelementptr inbounds %"class.std::_Function_base", ptr %3, i32 0, i32 0
  %12 = invoke noundef zeroext i1 %9(ptr noundef nonnull align 8 dereferenceable(16) %10, ptr noundef nonnull align 8 dereferenceable(16) %11, i32 noundef 3)
          to label %13 unwind label %15

13:                                               ; preds = %7
  br label %14

14:                                               ; preds = %13, %1
  ret void

15:                                               ; preds = %7
  %16 = landingpad { ptr, i32 }
          catch ptr null
  %17 = extractvalue { ptr, i32 } %16, 0
  call void @__clang_call_terminate(ptr %17) #19
  unreachable
}

; Function Attrs: mustprogress nounwind uwtable
define linkonce_odr dso_local noundef zeroext i1 @_ZNKSt8functionIFNSt7__cxx1112basic_stringIcSt11char_traitsIcESaIcEEERKS5_EEcvbEv(ptr noundef nonnull align 8 dereferenceable(32) %0) #5 comdat align 2 personality ptr @__gxx_personality_v0 {
  %2 = alloca ptr, align 8
  store ptr %0, ptr %2, align 8
  %3 = load ptr, ptr %2, align 8
  %4 = invoke noundef zeroext i1 @_ZNKSt14_Function_base8_M_emptyEv(ptr noundef nonnull align 8 dereferenceable(24) %3)
          to label %5 unwind label %7

5:                                                ; preds = %1
  %6 = xor i1 %4, true
  ret i1 %6

7:                                                ; preds = %1
  %8 = landingpad { ptr, i32 }
          catch ptr null
  %9 = extractvalue { ptr, i32 } %8, 0
  call void @__clang_call_terminate(ptr %9) #19
  unreachable
}

; Function Attrs: mustprogress nounwind uwtable
define linkonce_odr dso_local void @_ZNSt14_Function_baseC2Ev(ptr noundef nonnull align 8 dereferenceable(24) %0) unnamed_addr #5 comdat align 2 {
  %2 = alloca ptr, align 8
  store ptr %0, ptr %2, align 8
  %3 = load ptr, ptr %2, align 8
  %4 = getelementptr inbounds %"class.std::_Function_base", ptr %3, i32 0, i32 0
  store ptr null, ptr %4, align 8
  %5 = getelementptr inbounds %"class.std::_Function_base", ptr %3, i32 0, i32 1
  store ptr null, ptr %5, align 8
  ret void
}

; Function Attrs: mustprogress nounwind uwtable
define linkonce_odr dso_local void @_ZNSt8functionIFNSt7__cxx1112basic_stringIcSt11char_traitsIcESaIcEEERKS5_EED2Ev(ptr noundef nonnull align 8 dereferenceable(32) %0) unnamed_addr #5 comdat align 2 {
  %2 = alloca ptr, align 8
  store ptr %0, ptr %2, align 8
  %3 = load ptr, ptr %2, align 8
  call void @_ZNSt14_Function_baseD2Ev(ptr noundef nonnull align 8 dereferenceable(24) %3) #3
  ret void
}

; Function Attrs: mustprogress uwtable
define linkonce_odr dso_local void @_ZNSt8functionIFbRKNSt7__cxx1112basic_stringIcSt11char_traitsIcESaIcEEES7_EEC2ERKS9_(ptr noundef nonnull align 8 dereferenceable(32) %0, ptr noundef nonnull align 8 dereferenceable(32) %1) unnamed_addr #4 comdat align 2 personality ptr @__gxx_personality_v0 {
  %3 = alloca ptr, align 8
  %4 = alloca ptr, align 8
  %5 = alloca ptr, align 8
  %6 = alloca i32, align 4
  store ptr %0, ptr %3, align 8
  store ptr %1, ptr %4, align 8
  %7 = load ptr, ptr %3, align 8
  %8 = getelementptr inbounds i8, ptr %7, i64 0
  call void @llvm.memset.p0.i64(ptr align 8 %8, i8 0, i64 24, i1 false)
  call void @_ZNSt14_Function_baseC2Ev(ptr noundef nonnull align 8 dereferenceable(24) %7) #3
  %9 = getelementptr inbounds %"class.std::function.5", ptr %7, i32 0, i32 1
  store ptr null, ptr %9, align 8
  %10 = load ptr, ptr %4, align 8
  %11 = call noundef zeroext i1 @_ZNKSt8functionIFbRKNSt7__cxx1112basic_stringIcSt11char_traitsIcESaIcEEES7_EEcvbEv(ptr noundef nonnull align 8 dereferenceable(32) %10) #3
  br i1 %11, label %12, label %33

12:                                               ; preds = %2
  %13 = load ptr, ptr %4, align 8
  %14 = getelementptr inbounds %"class.std::_Function_base", ptr %13, i32 0, i32 1
  %15 = load ptr, ptr %14, align 8
  %16 = getelementptr inbounds %"class.std::_Function_base", ptr %7, i32 0, i32 0
  %17 = load ptr, ptr %4, align 8
  %18 = getelementptr inbounds %"class.std::_Function_base", ptr %17, i32 0, i32 0
  %19 = invoke noundef zeroext i1 %15(ptr noundef nonnull align 8 dereferenceable(16) %16, ptr noundef nonnull align 8 dereferenceable(16) %18, i32 noundef 2)
          to label %20 unwind label %29

20:                                               ; preds = %12
  %21 = load ptr, ptr %4, align 8
  %22 = getelementptr inbounds %"class.std::function.5", ptr %21, i32 0, i32 1
  %23 = load ptr, ptr %22, align 8
  %24 = getelementptr inbounds %"class.std::function.5", ptr %7, i32 0, i32 1
  store ptr %23, ptr %24, align 8
  %25 = load ptr, ptr %4, align 8
  %26 = getelementptr inbounds %"class.std::_Function_base", ptr %25, i32 0, i32 1
  %27 = load ptr, ptr %26, align 8
  %28 = getelementptr inbounds %"class.std::_Function_base", ptr %7, i32 0, i32 1
  store ptr %27, ptr %28, align 8
  br label %33

29:                                               ; preds = %12
  %30 = landingpad { ptr, i32 }
          cleanup
  %31 = extractvalue { ptr, i32 } %30, 0
  store ptr %31, ptr %5, align 8
  %32 = extractvalue { ptr, i32 } %30, 1
  store i32 %32, ptr %6, align 4
  call void @_ZNSt14_Function_baseD2Ev(ptr noundef nonnull align 8 dereferenceable(24) %7) #3
  br label %34

33:                                               ; preds = %20, %2
  ret void

34:                                               ; preds = %29
  %35 = load ptr, ptr %5, align 8
  %36 = load i32, ptr %6, align 4
  %37 = insertvalue { ptr, i32 } poison, ptr %35, 0
  %38 = insertvalue { ptr, i32 } %37, i32 %36, 1
  resume { ptr, i32 } %38
}

; Function Attrs: mustprogress uwtable
define linkonce_odr dso_local void @_ZNSt8functionIFNSt7__cxx1112basic_stringIcSt11char_traitsIcESaIcEEERKS5_EEC2ERKS9_(ptr noundef nonnull align 8 dereferenceable(32) %0, ptr noundef nonnull align 8 dereferenceable(32) %1) unnamed_addr #4 comdat align 2 personality ptr @__gxx_personality_v0 {
  %3 = alloca ptr, align 8
  %4 = alloca ptr, align 8
  %5 = alloca ptr, align 8
  %6 = alloca i32, align 4
  store ptr %0, ptr %3, align 8
  store ptr %1, ptr %4, align 8
  %7 = load ptr, ptr %3, align 8
  %8 = getelementptr inbounds i8, ptr %7, i64 0
  call void @llvm.memset.p0.i64(ptr align 8 %8, i8 0, i64 24, i1 false)
  call void @_ZNSt14_Function_baseC2Ev(ptr noundef nonnull align 8 dereferenceable(24) %7) #3
  %9 = getelementptr inbounds %"class.std::function", ptr %7, i32 0, i32 1
  store ptr null, ptr %9, align 8
  %10 = load ptr, ptr %4, align 8
  %11 = call noundef zeroext i1 @_ZNKSt8functionIFNSt7__cxx1112basic_stringIcSt11char_traitsIcESaIcEEERKS5_EEcvbEv(ptr noundef nonnull align 8 dereferenceable(32) %10) #3
  br i1 %11, label %12, label %33

12:                                               ; preds = %2
  %13 = load ptr, ptr %4, align 8
  %14 = getelementptr inbounds %"class.std::_Function_base", ptr %13, i32 0, i32 1
  %15 = load ptr, ptr %14, align 8
  %16 = getelementptr inbounds %"class.std::_Function_base", ptr %7, i32 0, i32 0
  %17 = load ptr, ptr %4, align 8
  %18 = getelementptr inbounds %"class.std::_Function_base", ptr %17, i32 0, i32 0
  %19 = invoke noundef zeroext i1 %15(ptr noundef nonnull align 8 dereferenceable(16) %16, ptr noundef nonnull align 8 dereferenceable(16) %18, i32 noundef 2)
          to label %20 unwind label %29

20:                                               ; preds = %12
  %21 = load ptr, ptr %4, align 8
  %22 = getelementptr inbounds %"class.std::function", ptr %21, i32 0, i32 1
  %23 = load ptr, ptr %22, align 8
  %24 = getelementptr inbounds %"class.std::function", ptr %7, i32 0, i32 1
  store ptr %23, ptr %24, align 8
  %25 = load ptr, ptr %4, align 8
  %26 = getelementptr inbounds %"class.std::_Function_base", ptr %25, i32 0, i32 1
  %27 = load ptr, ptr %26, align 8
  %28 = getelementptr inbounds %"class.std::_Function_base", ptr %7, i32 0, i32 1
  store ptr %27, ptr %28, align 8
  br label %33

29:                                               ; preds = %12
  %30 = landingpad { ptr, i32 }
          cleanup
  %31 = extractvalue { ptr, i32 } %30, 0
  store ptr %31, ptr %5, align 8
  %32 = extractvalue { ptr, i32 } %30, 1
  store i32 %32, ptr %6, align 4
  call void @_ZNSt14_Function_baseD2Ev(ptr noundef nonnull align 8 dereferenceable(24) %7) #3
  br label %34

33:                                               ; preds = %20, %2
  ret void

34:                                               ; preds = %29
  %35 = load ptr, ptr %5, align 8
  %36 = load i32, ptr %6, align 4
  %37 = insertvalue { ptr, i32 } poison, ptr %35, 0
  %38 = insertvalue { ptr, i32 } %37, i32 %36, 1
  resume { ptr, i32 } %38
}

; Function Attrs: mustprogress uwtable
define internal void @_ZN12_GLOBAL__N_112StringSorterC2ERKS0_(ptr noundef nonnull align 8 dereferenceable(97) %0, ptr noundef nonnull align 8 dereferenceable(97) %1) unnamed_addr #4 align 2 personality ptr @__gxx_personality_v0 {
  %3 = alloca ptr, align 8
  %4 = alloca ptr, align 8
  %5 = alloca ptr, align 8
  %6 = alloca i32, align 4
  store ptr %0, ptr %3, align 8
  store ptr %1, ptr %4, align 8
  %7 = load ptr, ptr %3, align 8
  %8 = getelementptr inbounds %"class.(anonymous namespace)::StringSorter", ptr %7, i32 0, i32 0
  %9 = load ptr, ptr %4, align 8
  %10 = getelementptr inbounds %"class.(anonymous namespace)::StringSorter", ptr %9, i32 0, i32 0
  %11 = getelementptr inbounds [2 x %"class.std::function"], ptr %8, i64 0, i64 0
  br label %12

12:                                               ; preds = %16, %2
  %13 = phi i64 [ 0, %2 ], [ %17, %16 ]
  %14 = getelementptr inbounds %"class.std::function", ptr %11, i64 %13
  %15 = getelementptr inbounds [2 x %"class.std::function"], ptr %10, i64 0, i64 %13
  invoke void @_ZNSt8functionIFNSt7__cxx1112basic_stringIcSt11char_traitsIcESaIcEEERKS5_EEC2ERKS9_(ptr noundef nonnull align 8 dereferenceable(32) %14, ptr noundef nonnull align 8 dereferenceable(32) %15)
          to label %16 unwind label %30

16:                                               ; preds = %12
  %17 = add nuw i64 %13, 1
  %18 = icmp eq i64 %17, 2
  br i1 %18, label %19, label %12

19:                                               ; preds = %16
  %20 = getelementptr inbounds %"class.(anonymous namespace)::StringSorter", ptr %7, i32 0, i32 1
  %21 = load ptr, ptr %4, align 8
  %22 = getelementptr inbounds %"class.(anonymous namespace)::StringSorter", ptr %21, i32 0, i32 1
  invoke void @_ZNSt8functionIFbRKNSt7__cxx1112basic_stringIcSt11char_traitsIcESaIcEEES7_EEC2ERKS9_(ptr noundef nonnull align 8 dereferenceable(32) %20, ptr noundef nonnull align 8 dereferenceable(32) %22)
          to label %23 unwind label %40

23:                                               ; preds = %19
  %24 = getelementptr inbounds %"class.(anonymous namespace)::StringSorter", ptr %7, i32 0, i32 2
  %25 = load ptr, ptr %4, align 8
  %26 = getelementptr inbounds %"class.(anonymous namespace)::StringSorter", ptr %25, i32 0, i32 2
  %27 = load i8, ptr %26, align 8
  %28 = trunc i8 %27 to i1
  %29 = zext i1 %28 to i8
  store i8 %29, ptr %24, align 8
  ret void

30:                                               ; preds = %12
  %31 = landingpad { ptr, i32 }
          cleanup
  %32 = extractvalue { ptr, i32 } %31, 0
  store ptr %32, ptr %5, align 8
  %33 = extractvalue { ptr, i32 } %31, 1
  store i32 %33, ptr %6, align 4
  %34 = icmp eq ptr %11, %14
  br i1 %34, label %39, label %35

35:                                               ; preds = %35, %30
  %36 = phi ptr [ %14, %30 ], [ %37, %35 ]
  %37 = getelementptr inbounds %"class.std::function", ptr %36, i64 -1
  call void @_ZNSt8functionIFNSt7__cxx1112basic_stringIcSt11char_traitsIcESaIcEEERKS5_EED2Ev(ptr noundef nonnull align 8 dereferenceable(32) %37) #3
  %38 = icmp eq ptr %37, %11
  br i1 %38, label %39, label %35

39:                                               ; preds = %35, %30
  br label %51

40:                                               ; preds = %19
  %41 = landingpad { ptr, i32 }
          cleanup
  %42 = extractvalue { ptr, i32 } %41, 0
  store ptr %42, ptr %5, align 8
  %43 = extractvalue { ptr, i32 } %41, 1
  store i32 %43, ptr %6, align 4
  %44 = getelementptr inbounds [2 x %"class.std::function"], ptr %8, i32 0, i32 0
  %45 = getelementptr inbounds %"class.std::function", ptr %44, i64 2
  br label %46

46:                                               ; preds = %46, %40
  %47 = phi ptr [ %45, %40 ], [ %48, %46 ]
  %48 = getelementptr inbounds %"class.std::function", ptr %47, i64 -1
  call void @_ZNSt8functionIFNSt7__cxx1112basic_stringIcSt11char_traitsIcESaIcEEERKS5_EED2Ev(ptr noundef nonnull align 8 dereferenceable(32) %48) #3
  %49 = icmp eq ptr %48, %44
  br i1 %49, label %50, label %46

50:                                               ; preds = %46
  br label %51

51:                                               ; preds = %50, %39
  %52 = load ptr, ptr %5, align 8
  %53 = load i32, ptr %6, align 4
  %54 = insertvalue { ptr, i32 } poison, ptr %52, 0
  %55 = insertvalue { ptr, i32 } %54, i32 %53, 1
  resume { ptr, i32 } %55
}