; Function Attrs: mustprogress uwtable
define internal fastcc void @_ZN12_GLOBAL__N_112StringSorterC2ERKS0_(ptr noundef nonnull align 8 dereferenceable(97) %0, ptr noundef nonnull align 8 dereferenceable(97) %1) unnamed_addr #3 align 2 personality ptr @__gxx_personality_v0 {
  br label %3

3:                                                ; preds = %_ZNSt8functionIFNSt7__cxx1112basic_stringIcSt11char_traitsIcESaIcEEERKS5_EEC2ERKS9_.exit, %2
  %4 = phi i1 [ true, %2 ], [ false, %_ZNSt8functionIFNSt7__cxx1112basic_stringIcSt11char_traitsIcESaIcEEERKS5_EEC2ERKS9_.exit ]
  %5 = phi i1 [ false, %2 ], [ true, %_ZNSt8functionIFNSt7__cxx1112basic_stringIcSt11char_traitsIcESaIcEEERKS5_EEC2ERKS9_.exit ]
  %6 = phi i64 [ 0, %2 ], [ 1, %_ZNSt8functionIFNSt7__cxx1112basic_stringIcSt11char_traitsIcESaIcEEERKS5_EEC2ERKS9_.exit ]
  %7 = getelementptr inbounds %"class.std::function", ptr %0, i64 %6
  %8 = getelementptr inbounds [2 x %"class.std::function"], ptr %1, i64 0, i64 %6
  %9 = getelementptr inbounds i8, ptr %7, i64 16
  %10 = getelementptr inbounds i8, ptr %7, i64 24
  %11 = getelementptr inbounds i8, ptr %8, i64 16
  tail call void @llvm.memset.p0.i64(ptr noundef nonnull align 8 dereferenceable(32) %7, i8 0, i64 32, i1 false)
  %12 = load ptr, ptr %11, align 8
  %.not.i.i.not.i = icmp eq ptr %12, null
  br i1 %.not.i.i.not.i, label %_ZNSt8functionIFNSt7__cxx1112basic_stringIcSt11char_traitsIcESaIcEEERKS5_EEC2ERKS9_.exit, label %13

13:                                               ; preds = %3
  %14 = invoke noundef zeroext i1 %12(ptr noundef nonnull align 8 dereferenceable(16) %7, ptr noundef nonnull align 8 dereferenceable(16) %8, i32 noundef 2)
          to label %15 unwind label %19

15:                                               ; preds = %13
  %16 = getelementptr inbounds i8, ptr %8, i64 24
  %17 = load ptr, ptr %16, align 8
  store ptr %17, ptr %10, align 8
  %18 = load ptr, ptr %11, align 8
  store ptr %18, ptr %9, align 8
  br label %_ZNSt8functionIFNSt7__cxx1112basic_stringIcSt11char_traitsIcESaIcEEERKS5_EEC2ERKS9_.exit

19:                                               ; preds = %13
  %20 = landingpad { ptr, i32 }
          cleanup
  %21 = load ptr, ptr %9, align 8
  %.not.i.i = icmp eq ptr %21, null
  br i1 %.not.i.i, label %.body, label %22

22:                                               ; preds = %19
  %23 = invoke noundef zeroext i1 %21(ptr noundef nonnull align 8 dereferenceable(16) %7, ptr noundef nonnull align 8 dereferenceable(16) %7, i32 noundef 3)
          to label %.body unwind label %24

24:                                               ; preds = %22
  %25 = landingpad { ptr, i32 }
          catch ptr null
  %26 = extractvalue { ptr, i32 } %25, 0
  tail call void @__clang_call_terminate(ptr %26) #30
  unreachable

_ZNSt8functionIFNSt7__cxx1112basic_stringIcSt11char_traitsIcESaIcEEERKS5_EEC2ERKS9_.exit: ; preds = %15, %3
  br i1 %5, label %27, label %3

27:                                               ; preds = %_ZNSt8functionIFNSt7__cxx1112basic_stringIcSt11char_traitsIcESaIcEEERKS5_EEC2ERKS9_.exit
  %28 = getelementptr inbounds i8, ptr %0, i64 64
  %29 = getelementptr inbounds i8, ptr %0, i64 80
  %30 = getelementptr inbounds i8, ptr %0, i64 88
  %31 = getelementptr inbounds i8, ptr %1, i64 80
  tail call void @llvm.memset.p0.i64(ptr noundef nonnull align 8 dereferenceable(32) %28, i8 0, i64 32, i1 false)
  %32 = load ptr, ptr %31, align 8
  %.not.i.i.not.i9 = icmp eq ptr %32, null
  br i1 %.not.i.i.not.i9, label %_ZNSt8functionIFbRKNSt7__cxx1112basic_stringIcSt11char_traitsIcESaIcEEES7_EEC2ERKS9_.exit, label %33

33:                                               ; preds = %27
  %34 = getelementptr inbounds i8, ptr %1, i64 64
  %35 = invoke noundef zeroext i1 %32(ptr noundef nonnull align 8 dereferenceable(16) %28, ptr noundef nonnull align 8 dereferenceable(16) %34, i32 noundef 2)
          to label %36 unwind label %40

36:                                               ; preds = %33
  %37 = getelementptr inbounds i8, ptr %1, i64 88
  %38 = load ptr, ptr %37, align 8
  store ptr %38, ptr %30, align 8
  %39 = load ptr, ptr %31, align 8
  store ptr %39, ptr %29, align 8
  br label %_ZNSt8functionIFbRKNSt7__cxx1112basic_stringIcSt11char_traitsIcESaIcEEES7_EEC2ERKS9_.exit

40:                                               ; preds = %33
  %41 = landingpad { ptr, i32 }
          cleanup
  %42 = load ptr, ptr %29, align 8
  %.not.i.i10 = icmp eq ptr %42, null
  br i1 %.not.i.i10, label %.body12.preheader, label %43

43:                                               ; preds = %40
  %44 = invoke noundef zeroext i1 %42(ptr noundef nonnull align 8 dereferenceable(16) %28, ptr noundef nonnull align 8 dereferenceable(16) %28, i32 noundef 3)
          to label %.body12.preheader unwind label %45

.body12.preheader:                                ; preds = %40, %43
  br label %.body12

45:                                               ; preds = %43
  %46 = landingpad { ptr, i32 }
          catch ptr null
  %47 = extractvalue { ptr, i32 } %46, 0
  tail call void @__clang_call_terminate(ptr %47) #30
  unreachable

_ZNSt8functionIFbRKNSt7__cxx1112basic_stringIcSt11char_traitsIcESaIcEEES7_EEC2ERKS9_.exit: ; preds = %36, %27
  %48 = getelementptr inbounds i8, ptr %0, i64 96
  %49 = getelementptr inbounds i8, ptr %1, i64 96
  %50 = load i8, ptr %49, align 8
  %51 = and i8 %50, 1
  store i8 %51, ptr %48, align 8
  ret void

.body:                                            ; preds = %19, %22
  br i1 %4, label %.loopexit, label %.preheader

.preheader:                                       ; preds = %.body, %_ZNSt8functionIFNSt7__cxx1112basic_stringIcSt11char_traitsIcESaIcEEERKS5_EED2Ev.exit
  %52 = phi ptr [ %53, %_ZNSt8functionIFNSt7__cxx1112basic_stringIcSt11char_traitsIcESaIcEEERKS5_EED2Ev.exit ], [ %7, %.body ]
  %53 = getelementptr inbounds i8, ptr %52, i64 -32
  %54 = getelementptr inbounds i8, ptr %52, i64 -16
  %55 = load ptr, ptr %54, align 8
  %.not.i.i14 = icmp eq ptr %55, null
  br i1 %.not.i.i14, label %_ZNSt8functionIFNSt7__cxx1112basic_stringIcSt11char_traitsIcESaIcEEERKS5_EED2Ev.exit, label %56

56:                                               ; preds = %.preheader
  %57 = invoke noundef zeroext i1 %55(ptr noundef nonnull align 8 dereferenceable(16) %53, ptr noundef nonnull align 8 dereferenceable(16) %53, i32 noundef 3)
          to label %_ZNSt8functionIFNSt7__cxx1112basic_stringIcSt11char_traitsIcESaIcEEERKS5_EED2Ev.exit unwind label %58

58:                                               ; preds = %56
  %59 = landingpad { ptr, i32 }
          catch ptr null
  %60 = extractvalue { ptr, i32 } %59, 0
  tail call void @__clang_call_terminate(ptr %60) #30
  unreachable

_ZNSt8functionIFNSt7__cxx1112basic_stringIcSt11char_traitsIcESaIcEEERKS5_EED2Ev.exit: ; preds = %.preheader, %56
  %61 = icmp eq ptr %53, %0
  br i1 %61, label %.loopexit, label %.preheader

.body12:                                          ; preds = %.body12.preheader, %_ZNSt8functionIFNSt7__cxx1112basic_stringIcSt11char_traitsIcESaIcEEERKS5_EED2Ev.exit18
  %62 = phi ptr [ %63, %_ZNSt8functionIFNSt7__cxx1112basic_stringIcSt11char_traitsIcESaIcEEERKS5_EED2Ev.exit18 ], [ %28, %.body12.preheader ]
  %63 = getelementptr inbounds i8, ptr %62, i64 -32
  %64 = getelementptr inbounds i8, ptr %62, i64 -16
  %65 = load ptr, ptr %64, align 8
  %.not.i.i16 = icmp eq ptr %65, null
  br i1 %.not.i.i16, label %_ZNSt8functionIFNSt7__cxx1112basic_stringIcSt11char_traitsIcESaIcEEERKS5_EED2Ev.exit18, label %66

66:                                               ; preds = %.body12
  %67 = invoke noundef zeroext i1 %65(ptr noundef nonnull align 8 dereferenceable(16) %63, ptr noundef nonnull align 8 dereferenceable(16) %63, i32 noundef 3)
          to label %_ZNSt8functionIFNSt7__cxx1112basic_stringIcSt11char_traitsIcESaIcEEERKS5_EED2Ev.exit18 unwind label %68

68:                                               ; preds = %66
  %69 = landingpad { ptr, i32 }
          catch ptr null
  %70 = extractvalue { ptr, i32 } %69, 0
  tail call void @__clang_call_terminate(ptr %70) #30
  unreachable

_ZNSt8functionIFNSt7__cxx1112basic_stringIcSt11char_traitsIcESaIcEEERKS5_EED2Ev.exit18: ; preds = %.body12, %66
  %71 = icmp eq ptr %63, %0
  br i1 %71, label %.loopexit, label %.body12

.loopexit:                                        ; preds = %_ZNSt8functionIFNSt7__cxx1112basic_stringIcSt11char_traitsIcESaIcEEERKS5_EED2Ev.exit, %_ZNSt8functionIFNSt7__cxx1112basic_stringIcSt11char_traitsIcESaIcEEERKS5_EED2Ev.exit18, %.body
  %.pn = phi { ptr, i32 } [ %20, %.body ], [ %41, %_ZNSt8functionIFNSt7__cxx1112basic_stringIcSt11char_traitsIcESaIcEEERKS5_EED2Ev.exit18 ], [ %20, %_ZNSt8functionIFNSt7__cxx1112basic_stringIcSt11char_traitsIcESaIcEEERKS5_EED2Ev.exit ]
  resume { ptr, i32 } %.pn
}